target datalayout = "e-m:e-p270:32:32-p271:32:32-p272:64:64-i64:64-i128:128-f80:128-n8:16:32:64-S128"
target triple = "x86_64-pc-linux-gnu"

%struct._php_ps_globals = type { ptr, ptr, ptr, ptr, ptr, i64, ptr, ptr, ptr, i8, i8, ptr, ptr, ptr, i32, ptr, i32, i32, %struct._php_random_status_state_pcgoneseq128xslrr64, %struct._php_random_algo_with_state, i64, i64, i64, i64, %struct.anon, ptr, i8, i8, i8, i8, i8, i8, i8, i8, ptr, %struct._zval_struct, i64, i64, ptr, ptr, ptr, i64, double, i8, i8, i8, i8, i8, i8, ptr }
%struct._php_random_status_state_pcgoneseq128xslrr64 = type { i128 }
%struct._php_random_algo_with_state = type { ptr, ptr }
%struct.anon = type { %struct._zval_struct, %struct._zval_struct, %struct._zval_struct, %struct._zval_struct, %struct._zval_struct, %struct._zval_struct, %struct._zval_struct, %struct._zval_struct, %struct._zval_struct }
%struct._zval_struct = type { %union._zend_value, %union.anon, %union.anon.3 }
%union._zend_value = type { i64 }
%union.anon = type { i32 }
%union.anon.3 = type { i32 }
%struct._zend_refcounted_h = type { i32, %union.anon.4 }
%union.anon.4 = type { i32 }
%struct._zend_reference = type { %struct._zend_refcounted_h, %struct._zval_struct, %union.zend_property_info_source_list }
%union.zend_property_info_source_list = type { ptr }
%struct.smart_str = type { ptr, i64 }

@ps_globals = global %struct._php_ps_globals zeroinitializer, align 16

; Function Attrs: nounwind uwtable
define hidden ptr @ps_srlzr_encode_php_serialize() #0 {
  %1 = alloca ptr, align 8
  %2 = alloca ptr, align 8
  %3 = alloca %struct.smart_str, align 8
  %4 = alloca ptr, align 8
  call void @llvm.memset.p0.i64(ptr align 8 %3, i8 0, i64 16, i1 false)
  store ptr getelementptr inbounds (%struct._php_ps_globals, ptr @ps_globals, i32 0, i32 35), ptr %1, align 8
  %5 = load ptr, ptr %1, align 8
  %6 = getelementptr inbounds %struct._zval_struct, ptr %5, i32 0, i32 1
  %7 = load i8, ptr %6, align 8
  %8 = zext i8 %7 to i32
  %9 = icmp eq i32 %8, 10
  br i1 %9, label %10, label %23

10:                                               ; preds = %0
  %11 = load ptr, ptr getelementptr inbounds (%struct._php_ps_globals, ptr @ps_globals, i32 0, i32 35), align 8
  %12 = getelementptr inbounds %struct._zend_reference, ptr %11, i32 0, i32 1
  store ptr %12, ptr %2, align 8
  %13 = load ptr, ptr %2, align 8
  %14 = getelementptr inbounds %struct._zval_struct, ptr %13, i32 0, i32 1
  %15 = load i8, ptr %14, align 8
  %16 = zext i8 %15 to i32
  %17 = icmp eq i32 %16, 7
  br i1 %17, label %18, label %23

18:                                               ; preds = %10
  %19 = call ptr @php_var_serialize_init()
  store ptr %19, ptr %4, align 8
  %20 = load ptr, ptr getelementptr inbounds (%struct._php_ps_globals, ptr @ps_globals, i32 0, i32 35), align 8
  %21 = getelementptr inbounds %struct._zend_reference, ptr %20, i32 0, i32 1
  call void @php_var_serialize(ptr noundef %3, ptr noundef %21, ptr noundef %4)
  %22 = load ptr, ptr %4, align 8
  call void @php_var_serialize_destroy(ptr noundef %22)
  br label %23

23:                                               ; preds = %18, %10, %0
  %24 = getelementptr inbounds %struct.smart_str, ptr %3, i32 0, i32 0
  %25 = load ptr, ptr %24, align 8
  ret ptr %25
}