; Function Attrs: nounwind uwtable
define hidden ptr @ps_srlzr_encode_php_serialize() #0 {
  %1 = alloca %struct.smart_str, align 8
  %2 = alloca ptr, align 8
  call void @llvm.memset.p0.i64(ptr noundef nonnull align 8 dereferenceable(16) %1, i8 0, i64 16, i1 false)
  %3 = load i8, ptr getelementptr inbounds (%struct._php_ps_globals, ptr @ps_globals, i64 0, i32 35, i32 1), align 16
  %4 = icmp eq i8 %3, 10
  br i1 %4, label %5, label %15

5:                                                ; preds = %0
  %6 = load ptr, ptr getelementptr inbounds (%struct._php_ps_globals, ptr @ps_globals, i64 0, i32 35), align 8
  %7 = getelementptr inbounds i8, ptr %6, i64 16
  %8 = load i8, ptr %7, align 8
  %9 = icmp eq i8 %8, 7
  br i1 %9, label %10, label %15

10:                                               ; preds = %5
  %11 = tail call ptr @php_var_serialize_init() #23
  store ptr %11, ptr %2, align 8
  %12 = load ptr, ptr getelementptr inbounds (%struct._php_ps_globals, ptr @ps_globals, i64 0, i32 35), align 8
  %13 = getelementptr inbounds i8, ptr %12, i64 8
  call void @php_var_serialize(ptr noundef nonnull %1, ptr noundef nonnull %13, ptr noundef nonnull %2) #23
  %14 = load ptr, ptr %2, align 8
  call void @php_var_serialize_destroy(ptr noundef %14) #23
  %.pre = load ptr, ptr %1, align 8
  br label %15

15:                                               ; preds = %10, %5, %0
  %16 = phi ptr [ %.pre, %10 ], [ null, %5 ], [ null, %0 ]
  ret ptr %16
}